; Function Attrs: nounwind uwtable
define noalias nonnull ptr @l___private_Lean_Compiler_InlineAttrs_0__Lean_Compiler_hashInlineAttributeKind____x40_Lean_Compiler_InlineAttrs___hyg_36____boxed(ptr noundef %0) #1 {
  %2 = ptrtoint ptr %0 to i64
  %3 = and i64 %2, 1
  %.not = icmp eq i64 %3, 0
  br i1 %.not, label %4, label %lean_dec.exit

4:                                                ; preds = %1
  %5 = load i32, ptr %0, align 4, !tbaa !4
  %6 = icmp sgt i32 %5, 1
  br i1 %6, label %7, label %9, !prof !9

7:                                                ; preds = %4
  %8 = add nsw i32 %5, -1
  store i32 %8, ptr %0, align 4, !tbaa !4
  br label %lean_dec.exit

9:                                                ; preds = %4
  %.not.i = icmp eq i32 %5, 0
  br i1 %.not.i, label %lean_dec.exit, label %10

10:                                               ; preds = %9
  tail call void @lean_dec_ref_cold(ptr noundef nonnull %0) #7
  br label %lean_dec.exit

lean_dec.exit:                                    ; preds = %10, %9, %7, %1
  tail call void @lean_inc_heartbeat() #7
  %11 = tail call noalias ptr @mi_malloc_small(i64 noundef 16) #7
  %12 = icmp eq ptr %11, null
  br i1 %12, label %13, label %lean_box_uint64.exit

13:                                               ; preds = %lean_dec.exit
  tail call void @lean_internal_panic_out_of_memory() #8
  unreachable

lean_box_uint64.exit:                             ; preds = %lean_dec.exit
  %14 = and i64 %2, 504
  %15 = icmp eq i64 %14, 0
  %16 = lshr i64 %2, 1
  %switch.idx.cast = and i64 %16, 255
  %.0.i = select i1 %15, i64 %switch.idx.cast, i64 4
  %17 = getelementptr inbounds nuw i8, ptr %11, i64 4
  store i32 1, ptr %11, align 4, !tbaa !4
  store i32 16, ptr %17, align 4
  %18 = getelementptr inbounds nuw i8, ptr %11, i64 8
  store i64 %.0.i, ptr %18, align 8, !tbaa !15
  ret ptr %11
}